(lp0
(lp1
S'where to buy online'
p2
a(lp3
(lp4
S'you can buy onay in yellow onay station. It costs 400 tenge'
p5
aI1
aaaa(lp6
S'where is siren'
p7
a(lp8
(lp9
S'sayran locates on the intersection of streets tole bee and matezalka. You can get there at bus number 92'
p10
aI1
aaaa(lp11
S'where to pay for parking'
p12
a(lp13
(lp14
S'For parking you can pay at the station where is right next to entrance'
p15
aI1
aaaa.